; Function Attrs: mustprogress nofree norecurse nosync nounwind willreturn memory(read, inaccessiblemem: none) uwtable
define hidden noundef zeroext i1 @_ZNK4cvc58internal6theory5arith6linear14ArithVariables23strictlyAboveLowerBoundEj(ptr nocapture noundef nonnull readonly align 8 dereferenceable(568) %this, i32 noundef %x) local_unnamed_addr #7 align 2 {
entry:
  %d_image.i = getelementptr inbounds i8, ptr %this, i64 48
  %conv.i = zext i32 %x to i64
  %0 = load ptr, ptr %d_image.i, align 8
  %d_cmpAssignmentLB = getelementptr inbounds %"class.cvc5::internal::theory::arith::linear::ArithVariables::VarInfo", ptr %0, i64 %conv.i, i32 5
  %1 = load i32, ptr %d_cmpAssignmentLB, align 8
  %cmp = icmp sgt i32 %1, 0
  ret i1 %cmp
}